target datalayout = "e-m:e-p270:32:32-p271:32:32-p272:64:64-i64:64-i128:128-f80:128-n8:16:32:64-S128"
target triple = "x86_64-pc-linux-gnu"

%struct.HASHCTL = type { i64, i64, i64, i64, i64, i64, ptr, ptr, ptr, ptr, ptr, ptr }
%struct.PartitionDirectoryData = type { ptr, ptr, i8 }

@.str = private unnamed_addr constant [20 x i8] c"partition directory\00", align 1
@CurrentMemoryContext = external global ptr, align 8

; Function Attrs: inlinehint nounwind uwtable
define internal ptr @MemoryContextSwitchTo(ptr noundef %0) #4 {
  %2 = alloca ptr, align 8
  %3 = alloca ptr, align 8
  store ptr %0, ptr %2, align 8
  call void @llvm.lifetime.start.p0(i64 8, ptr %3) #7
  %4 = load ptr, ptr @CurrentMemoryContext, align 8
  store ptr %4, ptr %3, align 8
  %5 = load ptr, ptr %2, align 8
  store ptr %5, ptr @CurrentMemoryContext, align 8
  %6 = load ptr, ptr %3, align 8
  call void @llvm.lifetime.end.p0(i64 8, ptr %3) #7
  ret ptr %6
}

; Function Attrs: nounwind uwtable
define dso_local ptr @CreatePartitionDirectory(ptr noundef %0, i1 noundef zeroext %1) #0 {
  %3 = alloca ptr, align 8
  %4 = alloca i8, align 1
  %5 = alloca ptr, align 8
  %6 = alloca ptr, align 8
  %7 = alloca %struct.HASHCTL, align 8
  store ptr %0, ptr %3, align 8
  %8 = zext i1 %1 to i8
  store i8 %8, ptr %4, align 1
  call void @llvm.lifetime.start.p0(i64 8, ptr %5) #7
  %9 = load ptr, ptr %3, align 8
  %10 = call ptr @MemoryContextSwitchTo(ptr noundef %9)
  store ptr %10, ptr %5, align 8
  call void @llvm.lifetime.start.p0(i64 8, ptr %6) #7
  call void @llvm.lifetime.start.p0(i64 96, ptr %7) #7
  %11 = call ptr @palloc(i64 noundef 24)
  store ptr %11, ptr %6, align 8
  %12 = load ptr, ptr %3, align 8
  %13 = load ptr, ptr %6, align 8
  %14 = getelementptr inbounds nuw %struct.PartitionDirectoryData, ptr %13, i32 0, i32 0
  store ptr %12, ptr %14, align 8
  %15 = getelementptr inbounds nuw %struct.HASHCTL, ptr %7, i32 0, i32 4
  store i64 4, ptr %15, align 8
  %16 = getelementptr inbounds nuw %struct.HASHCTL, ptr %7, i32 0, i32 5
  store i64 24, ptr %16, align 8
  %17 = load ptr, ptr %3, align 8
  %18 = getelementptr inbounds nuw %struct.HASHCTL, ptr %7, i32 0, i32 10
  store ptr %17, ptr %18, align 8
  %19 = call ptr @hash_create(ptr noundef @.str, i64 noundef 256, ptr noundef %7, i32 noundef 1064)
  %20 = load ptr, ptr %6, align 8
  %21 = getelementptr inbounds nuw %struct.PartitionDirectoryData, ptr %20, i32 0, i32 1
  store ptr %19, ptr %21, align 8
  %22 = load i8, ptr %4, align 1, !range !4, !noundef !5
  %23 = trunc i8 %22 to i1
  %24 = load ptr, ptr %6, align 8
  %25 = getelementptr inbounds nuw %struct.PartitionDirectoryData, ptr %24, i32 0, i32 2
  %26 = zext i1 %23 to i8
  store i8 %26, ptr %25, align 8
  %27 = load ptr, ptr %5, align 8
  %28 = call ptr @MemoryContextSwitchTo(ptr noundef %27)
  %29 = load ptr, ptr %6, align 8
  call void @llvm.lifetime.end.p0(i64 96, ptr %7) #7
  call void @llvm.lifetime.end.p0(i64 8, ptr %6) #7
  call void @llvm.lifetime.end.p0(i64 8, ptr %5) #7
  ret ptr %29
}