; Function Attrs: nounwind uwtable
define dso_local noundef ptr @CreatePartitionDirectory(ptr noundef %0, i1 noundef zeroext %1) local_unnamed_addr #0 {
  %3 = alloca %struct.HASHCTL, align 8
  %4 = zext i1 %1 to i8
  %5 = load ptr, ptr @CurrentMemoryContext, align 8
  store ptr %0, ptr @CurrentMemoryContext, align 8
  call void @llvm.lifetime.start.p0(i64 96, ptr nonnull %3) #6
  %6 = tail call ptr @palloc(i64 noundef 24) #6
  store ptr %0, ptr %6, align 8
  %7 = getelementptr inbounds nuw i8, ptr %3, i64 32
  store i64 4, ptr %7, align 8
  %8 = getelementptr inbounds nuw i8, ptr %3, i64 40
  store i64 24, ptr %8, align 8
  %9 = getelementptr inbounds nuw i8, ptr %3, i64 80
  store ptr %0, ptr %9, align 8
  %10 = call ptr @hash_create(ptr noundef nonnull @.str, i64 noundef 256, ptr noundef nonnull %3, i32 noundef 1064) #6
  %11 = getelementptr inbounds nuw i8, ptr %6, i64 8
  store ptr %10, ptr %11, align 8
  %12 = getelementptr inbounds nuw i8, ptr %6, i64 16
  store i8 %4, ptr %12, align 8
  store ptr %5, ptr @CurrentMemoryContext, align 8
  call void @llvm.lifetime.end.p0(i64 96, ptr nonnull %3) #6
  ret ptr %6
}